target datalayout = "e-m:e-p270:32:32-p271:32:32-p272:64:64-i64:64-i128:128-f80:128-n8:16:32:64-S128"
target triple = "x86_64-pc-linux-gnu"

%struct.RelFileLocator = type { i32, i32, i32 }
%struct.XLogReaderRoutine = type { ptr, ptr, ptr }
%struct.XLogRecord = type { i32, i32, i64, i8, i8, i32 }
%struct.XLogReaderState = type { %struct.XLogReaderRoutine, i64, ptr, i64, i64, i64, i64, i64, i64, i64, i64, ptr, ptr, i64, i8, ptr, ptr, ptr, ptr, ptr, i32, %struct.WALSegmentContext, %struct.WALOpenSegment, i32, i64, i32, i64, i32, i64, i32, ptr, i32, ptr, i8, i8 }
%struct.WALSegmentContext = type { [1024 x i8], i32 }
%struct.WALOpenSegment = type { i32, i64, i32 }
%struct.DecodedXLogRecord = type { i64, i8, ptr, i64, i64, %struct.XLogRecord, i16, i32, ptr, i32, i32, [0 x %struct.DecodedBkpBlock] }
%struct.DecodedBkpBlock = type { i8, %struct.RelFileLocator, i32, i32, i32, i8, i8, i8, ptr, i16, i16, i16, i8, i8, ptr, i16, i16 }
%union.PGAlignedBlock = type { double, [8184 x i8] }

@.str.106 = private unnamed_addr constant [29 x i8] c"could not open file \22%s\22: %m\00", align 1
@.str.114 = private unnamed_addr constant [3 x i8] c"%s\00", align 1
@.str.115 = private unnamed_addr constant [4 x i8] c"_%s\00", align 1
@forkNames = external constant [0 x ptr], align 8
@.str.116 = private unnamed_addr constant [24 x i8] c"invalid fork number: %u\00", align 1
@.str.117 = private unnamed_addr constant [32 x i8] c"%s/%08X-%08X-%08X.%u.%u.%u.%u%s\00", align 1
@.str.118 = private unnamed_addr constant [2 x i8] c"w\00", align 1
@.str.119 = private unnamed_addr constant [30 x i8] c"could not write file \22%s\22: %m\00", align 1
@.str.120 = private unnamed_addr constant [30 x i8] c"could not close file \22%s\22: %m\00", align 1

; Function Attrs: nounwind uwtable
define internal void @XLogRecordSaveFPWs(ptr noundef %0, ptr noundef %1) #0 {
  %3 = alloca ptr, align 8
  %4 = alloca ptr, align 8
  %5 = alloca i32, align 4
  %6 = alloca %union.PGAlignedBlock, align 8
  %7 = alloca ptr, align 8
  %8 = alloca [1024 x i8], align 16
  %9 = alloca [6 x i8], align 1
  %10 = alloca ptr, align 8
  %11 = alloca i32, align 4
  %12 = alloca %struct.RelFileLocator, align 4
  %13 = alloca i32, align 4
  %14 = alloca i32, align 4
  %15 = alloca i32, align 4
  store ptr %0, ptr %3, align 8
  store ptr %1, ptr %4, align 8
  call void @llvm.lifetime.start.p0(i64 4, ptr %5) #10
  store i32 0, ptr %5, align 4
  br label %16

16:                                               ; preds = %152, %2
  %17 = load i32, ptr %5, align 4
  %18 = load ptr, ptr %3, align 8
  %19 = getelementptr inbounds nuw %struct.XLogReaderState, ptr %18, i32 0, i32 11
  %20 = load ptr, ptr %19, align 8
  %21 = getelementptr inbounds nuw %struct.DecodedXLogRecord, ptr %20, i32 0, i32 10
  %22 = load i32, ptr %21, align 4
  %23 = icmp sle i32 %17, %22
  br i1 %23, label %24, label %155

24:                                               ; preds = %16
  call void @llvm.lifetime.start.p0(i64 8192, ptr %6) #10
  call void @llvm.lifetime.start.p0(i64 8, ptr %7) #10
  call void @llvm.lifetime.start.p0(i64 1024, ptr %8) #10
  call void @llvm.lifetime.start.p0(i64 6, ptr %9) #10
  call void @llvm.lifetime.start.p0(i64 8, ptr %10) #10
  call void @llvm.lifetime.start.p0(i64 4, ptr %11) #10
  call void @llvm.lifetime.start.p0(i64 12, ptr %12) #10
  call void @llvm.lifetime.start.p0(i64 4, ptr %13) #10
  %25 = load ptr, ptr %3, align 8
  %26 = getelementptr inbounds nuw %struct.XLogReaderState, ptr %25, i32 0, i32 11
  %27 = load ptr, ptr %26, align 8
  %28 = getelementptr inbounds nuw %struct.DecodedXLogRecord, ptr %27, i32 0, i32 10
  %29 = load i32, ptr %28, align 4
  %30 = load i32, ptr %5, align 4
  %31 = icmp sge i32 %29, %30
  br i1 %31, label %32, label %43

32:                                               ; preds = %24
  %33 = load ptr, ptr %3, align 8
  %34 = getelementptr inbounds nuw %struct.XLogReaderState, ptr %33, i32 0, i32 11
  %35 = load ptr, ptr %34, align 8
  %36 = getelementptr inbounds nuw %struct.DecodedXLogRecord, ptr %35, i32 0, i32 11
  %37 = load i32, ptr %5, align 4
  %38 = sext i32 %37 to i64
  %39 = getelementptr inbounds [0 x %struct.DecodedBkpBlock], ptr %36, i64 0, i64 %38
  %40 = getelementptr inbounds nuw %struct.DecodedBkpBlock, ptr %39, i32 0, i32 0
  %41 = load i8, ptr %40, align 8, !range !8, !noundef !9
  %42 = trunc i8 %41 to i1
  br i1 %42, label %44, label %43

43:                                               ; preds = %32, %24
  store i32 4, ptr %14, align 4
  br label %149

44:                                               ; preds = %32
  %45 = load ptr, ptr %3, align 8
  %46 = getelementptr inbounds nuw %struct.XLogReaderState, ptr %45, i32 0, i32 11
  %47 = load ptr, ptr %46, align 8
  %48 = getelementptr inbounds nuw %struct.DecodedXLogRecord, ptr %47, i32 0, i32 11
  %49 = load i32, ptr %5, align 4
  %50 = sext i32 %49 to i64
  %51 = getelementptr inbounds [0 x %struct.DecodedBkpBlock], ptr %48, i64 0, i64 %50
  %52 = getelementptr inbounds nuw %struct.DecodedBkpBlock, ptr %51, i32 0, i32 6
  %53 = load i8, ptr %52, align 1, !range !8, !noundef !9
  %54 = trunc i8 %53 to i1
  br i1 %54, label %56, label %55

55:                                               ; preds = %44
  store i32 4, ptr %14, align 4
  br label %149

56:                                               ; preds = %44
  %57 = getelementptr inbounds [8192 x i8], ptr %6, i64 0, i64 0
  store ptr %57, ptr %7, align 8
  %58 = load ptr, ptr %3, align 8
  %59 = load i32, ptr %5, align 4
  %60 = trunc i32 %59 to i8
  %61 = load ptr, ptr %7, align 8
  %62 = call zeroext i1 @RestoreBlockImage(ptr noundef %58, i8 noundef zeroext %60, ptr noundef %61)
  br i1 %62, label %70, label %63

63:                                               ; preds = %56
  br label %64

64:                                               ; preds = %63
  %65 = load ptr, ptr %3, align 8
  %66 = getelementptr inbounds nuw %struct.XLogReaderState, ptr %65, i32 0, i32 32
  %67 = load ptr, ptr %66, align 8
  call void (i32, i32, ptr, ...) @pg_log_generic(i32 noundef 4, i32 noundef 0, ptr noundef @.str.114, ptr noundef %67)
  call void @exit(i32 noundef 1) #12
  unreachable

68:                                               ; No predecessors!
  br label %69

69:                                               ; preds = %68
  br label %70

70:                                               ; preds = %69, %56
  %71 = load ptr, ptr %3, align 8
  %72 = load i32, ptr %5, align 4
  %73 = trunc i32 %72 to i8
  %74 = call zeroext i1 @XLogRecGetBlockTagExtended(ptr noundef %71, i8 noundef zeroext %73, ptr noundef %12, ptr noundef %13, ptr noundef %11, ptr noundef null)
  %75 = load i32, ptr %13, align 4
  %76 = icmp sge i32 %75, 0
  br i1 %76, label %77, label %87

77:                                               ; preds = %70
  %78 = load i32, ptr %13, align 4
  %79 = icmp sle i32 %78, 3
  br i1 %79, label %80, label %87

80:                                               ; preds = %77
  %81 = getelementptr inbounds [6 x i8], ptr %9, i64 0, i64 0
  %82 = load i32, ptr %13, align 4
  %83 = sext i32 %82 to i64
  %84 = getelementptr inbounds [0 x ptr], ptr @forkNames, i64 0, i64 %83
  %85 = load ptr, ptr %84, align 8
  %86 = call i32 (ptr, ptr, ...) @pg_sprintf(ptr noundef %81, ptr noundef @.str.115, ptr noundef %85)
  br label %92

87:                                               ; preds = %77, %70
  br label %88

88:                                               ; preds = %87
  %89 = load i32, ptr %13, align 4
  call void (i32, i32, ptr, ...) @pg_log_generic(i32 noundef 4, i32 noundef 0, ptr noundef @.str.116, i32 noundef %89)
  call void @exit(i32 noundef 1) #12
  unreachable

90:                                               ; No predecessors!
  br label %91

91:                                               ; preds = %90
  br label %92

92:                                               ; preds = %91, %80
  %93 = getelementptr inbounds [1024 x i8], ptr %8, i64 0, i64 0
  %94 = load ptr, ptr %4, align 8
  %95 = load ptr, ptr %3, align 8
  %96 = getelementptr inbounds nuw %struct.XLogReaderState, ptr %95, i32 0, i32 22
  %97 = getelementptr inbounds nuw %struct.WALOpenSegment, ptr %96, i32 0, i32 2
  %98 = load i32, ptr %97, align 8
  br label %99

99:                                               ; preds = %92
  br label %100

100:                                              ; preds = %99
  br label %101

101:                                              ; preds = %100
  store i32 1, ptr %15, align 4
  %102 = load ptr, ptr %3, align 8
  %103 = getelementptr inbounds nuw %struct.XLogReaderState, ptr %102, i32 0, i32 3
  %104 = load i64, ptr %103, align 8
  %105 = lshr i64 %104, 32
  %106 = trunc i64 %105 to i32
  %107 = load ptr, ptr %3, align 8
  %108 = getelementptr inbounds nuw %struct.XLogReaderState, ptr %107, i32 0, i32 3
  %109 = load i64, ptr %108, align 8
  %110 = trunc i64 %109 to i32
  %111 = getelementptr inbounds nuw %struct.RelFileLocator, ptr %12, i32 0, i32 0
  %112 = load i32, ptr %111, align 4
  %113 = getelementptr inbounds nuw %struct.RelFileLocator, ptr %12, i32 0, i32 1
  %114 = load i32, ptr %113, align 4
  %115 = getelementptr inbounds nuw %struct.RelFileLocator, ptr %12, i32 0, i32 2
  %116 = load i32, ptr %115, align 4
  %117 = load i32, ptr %11, align 4
  %118 = getelementptr inbounds [6 x i8], ptr %9, i64 0, i64 0
  %119 = call i32 (ptr, i64, ptr, ...) @pg_snprintf(ptr noundef %93, i64 noundef 1024, ptr noundef @.str.117, ptr noundef %94, i32 noundef %98, i32 noundef %106, i32 noundef %110, i32 noundef %112, i32 noundef %114, i32 noundef %116, i32 noundef %117, ptr noundef %118)
  %120 = getelementptr inbounds [1024 x i8], ptr %8, i64 0, i64 0
  %121 = call noalias ptr @fopen(ptr noundef %120, ptr noundef @.str.118)
  store ptr %121, ptr %10, align 8
  %122 = load ptr, ptr %10, align 8
  %123 = icmp ne ptr %122, null
  br i1 %123, label %129, label %124

124:                                              ; preds = %101
  br label %125

125:                                              ; preds = %124
  %126 = getelementptr inbounds [1024 x i8], ptr %8, i64 0, i64 0
  call void (i32, i32, ptr, ...) @pg_log_generic(i32 noundef 4, i32 noundef 0, ptr noundef @.str.106, ptr noundef %126)
  call void @exit(i32 noundef 1) #12
  unreachable

127:                                              ; No predecessors!
  br label %128

128:                                              ; preds = %127
  br label %129

129:                                              ; preds = %128, %101
  %130 = load ptr, ptr %7, align 8
  %131 = load ptr, ptr %10, align 8
  %132 = call i64 @fwrite(ptr noundef %130, i64 noundef 8192, i64 noundef 1, ptr noundef %131)
  %133 = icmp ne i64 %132, 1
  br i1 %133, label %134, label %139

134:                                              ; preds = %129
  br label %135

135:                                              ; preds = %134
  %136 = getelementptr inbounds [1024 x i8], ptr %8, i64 0, i64 0
  call void (i32, i32, ptr, ...) @pg_log_generic(i32 noundef 4, i32 noundef 0, ptr noundef @.str.119, ptr noundef %136)
  call void @exit(i32 noundef 1) #12
  unreachable

137:                                              ; No predecessors!
  br label %138

138:                                              ; preds = %137
  br label %139

139:                                              ; preds = %138, %129
  %140 = load ptr, ptr %10, align 8
  %141 = call i32 @fclose(ptr noundef %140)
  %142 = icmp ne i32 %141, 0
  br i1 %142, label %143, label %148

143:                                              ; preds = %139
  br label %144

144:                                              ; preds = %143
  %145 = getelementptr inbounds [1024 x i8], ptr %8, i64 0, i64 0
  call void (i32, i32, ptr, ...) @pg_log_generic(i32 noundef 4, i32 noundef 0, ptr noundef @.str.120, ptr noundef %145)
  call void @exit(i32 noundef 1) #12
  unreachable

146:                                              ; No predecessors!
  br label %147

147:                                              ; preds = %146
  br label %148

148:                                              ; preds = %147, %139
  store i32 0, ptr %14, align 4
  br label %149

149:                                              ; preds = %148, %55, %43
  call void @llvm.lifetime.end.p0(i64 4, ptr %13) #10
  call void @llvm.lifetime.end.p0(i64 12, ptr %12) #10
  call void @llvm.lifetime.end.p0(i64 4, ptr %11) #10
  call void @llvm.lifetime.end.p0(i64 8, ptr %10) #10
  call void @llvm.lifetime.end.p0(i64 6, ptr %9) #10
  call void @llvm.lifetime.end.p0(i64 1024, ptr %8) #10
  call void @llvm.lifetime.end.p0(i64 8, ptr %7) #10
  call void @llvm.lifetime.end.p0(i64 8192, ptr %6) #10
  %150 = load i32, ptr %14, align 4
  switch i32 %150, label %156 [
    i32 0, label %151
    i32 4, label %152
  ]

151:                                              ; preds = %149
  br label %152

152:                                              ; preds = %151, %149
  %153 = load i32, ptr %5, align 4
  %154 = add i32 %153, 1
  store i32 %154, ptr %5, align 4
  br label %16, !llvm.loop !14

155:                                              ; preds = %16
  call void @llvm.lifetime.end.p0(i64 4, ptr %5) #10
  ret void

156:                                              ; preds = %149
  unreachable
}